target datalayout = "e-m:e-p270:32:32-p271:32:32-p272:64:64-i64:64-i128:128-f80:128-n8:16:32:64-S128"
target triple = "x86_64-pc-linux-gnu"

%struct.PortalData = type { ptr, ptr, ptr, ptr, ptr, i32, i32, i32, ptr, i32, %struct.QueryCompletion, ptr, ptr, ptr, ptr, i32, i32, i32, i8, i8, ptr, ptr, ptr, ptr, ptr, ptr, ptr, i8, i8, i64, i64, i8 }
%struct.QueryCompletion = type { i32, i64 }

; Function Attrs: nounwind uwtable
define dso_local ptr @FetchPortalTargetList(ptr noundef %0) #0 {
  %2 = alloca ptr, align 8
  %3 = alloca ptr, align 8
  store ptr %0, ptr %3, align 8
  %4 = load ptr, ptr %3, align 8
  %5 = getelementptr inbounds nuw %struct.PortalData, ptr %4, i32 0, i32 15
  %6 = load i32, ptr %5, align 8
  %7 = icmp eq i32 %6, 4
  br i1 %7, label %8, label %9

8:                                                ; preds = %1
  store ptr null, ptr %2, align 8
  br label %13

9:                                                ; preds = %1
  %10 = load ptr, ptr %3, align 8
  %11 = call ptr @PortalGetPrimaryStmt(ptr noundef %10)
  %12 = call ptr @FetchStatementTargetList(ptr noundef %11)
  store ptr %12, ptr %2, align 8
  br label %13

13:                                               ; preds = %9, %8
  %14 = load ptr, ptr %2, align 8
  ret ptr %14
}