; Function Attrs: nounwind uwtable
define dso_local ptr @FetchPortalTargetList(ptr noundef %0) local_unnamed_addr #0 {
  %2 = getelementptr inbounds nuw i8, ptr %0, i64 120
  %3 = load i32, ptr %2, align 8
  %4 = icmp eq i32 %3, 4
  br i1 %4, label %8, label %5

5:                                                ; preds = %1
  %6 = tail call ptr @PortalGetPrimaryStmt(ptr noundef nonnull %0) #11
  %7 = tail call ptr @FetchStatementTargetList(ptr noundef %6)
  br label %8

8:                                                ; preds = %1, %5
  %.0 = phi ptr [ %7, %5 ], [ null, %1 ]
  ret ptr %.0
}